target datalayout = "e-m:e-p270:32:32-p271:32:32-p272:64:64-i64:64-i128:128-f80:128-n8:16:32:64-S128"
target triple = "x86_64-pc-linux-gnu"

%struct.TuplesortPublic = type { ptr, ptr, ptr, ptr, ptr, ptr, ptr, ptr, ptr, i8, i32, ptr, ptr, i32, i8, ptr }
%struct.SortSupportData = type { ptr, i32, i8, i8, i16, ptr, ptr, i8, ptr, ptr, ptr }
%struct.HeapTupleData = type { i32, %struct.ItemPointerData, i32, ptr }
%struct.ItemPointerData = type { %struct.BlockIdData, i16 }
%struct.BlockIdData = type { i16, i16 }
%struct.SortTuple = type { ptr, i64, i8, i32 }
%struct.MinimalTupleData = type { i32, [6 x i8], i16, i16, i8, [0 x i8] }

; Function Attrs: nounwind uwtable
define internal void @removeabbrev_heap(ptr noundef %0, ptr noundef %1, i32 noundef %2) #0 {
  %4 = alloca ptr, align 8
  %5 = alloca ptr, align 8
  %6 = alloca i32, align 4
  %7 = alloca i32, align 4
  %8 = alloca ptr, align 8
  %9 = alloca %struct.HeapTupleData, align 8
  store ptr %0, ptr %4, align 8
  store ptr %1, ptr %5, align 8
  store i32 %2, ptr %6, align 4
  call void @llvm.lifetime.start.p0(i64 4, ptr %7) #6
  call void @llvm.lifetime.start.p0(i64 8, ptr %8) #6
  %10 = load ptr, ptr %4, align 8
  store ptr %10, ptr %8, align 8
  store i32 0, ptr %7, align 4
  br label %11

11:                                               ; preds = %57, %3
  %12 = load i32, ptr %7, align 4
  %13 = load i32, ptr %6, align 4
  %14 = icmp slt i32 %12, %13
  br i1 %14, label %15, label %60

15:                                               ; preds = %11
  call void @llvm.lifetime.start.p0(i64 24, ptr %9) #6
  %16 = load ptr, ptr %5, align 8
  %17 = load i32, ptr %7, align 4
  %18 = sext i32 %17 to i64
  %19 = getelementptr inbounds %struct.SortTuple, ptr %16, i64 %18
  %20 = getelementptr inbounds nuw %struct.SortTuple, ptr %19, i32 0, i32 0
  %21 = load ptr, ptr %20, align 8
  %22 = getelementptr inbounds nuw %struct.MinimalTupleData, ptr %21, i32 0, i32 0
  %23 = load i32, ptr %22, align 4
  %24 = zext i32 %23 to i64
  %25 = add i64 %24, 8
  %26 = trunc i64 %25 to i32
  %27 = getelementptr inbounds nuw %struct.HeapTupleData, ptr %9, i32 0, i32 0
  store i32 %26, ptr %27, align 8
  %28 = load ptr, ptr %5, align 8
  %29 = load i32, ptr %7, align 4
  %30 = sext i32 %29 to i64
  %31 = getelementptr inbounds %struct.SortTuple, ptr %28, i64 %30
  %32 = getelementptr inbounds nuw %struct.SortTuple, ptr %31, i32 0, i32 0
  %33 = load ptr, ptr %32, align 8
  %34 = getelementptr inbounds i8, ptr %33, i64 -8
  %35 = getelementptr inbounds nuw %struct.HeapTupleData, ptr %9, i32 0, i32 3
  store ptr %34, ptr %35, align 8
  %36 = load ptr, ptr %8, align 8
  %37 = getelementptr inbounds nuw %struct.TuplesortPublic, ptr %36, i32 0, i32 11
  %38 = load ptr, ptr %37, align 8
  %39 = getelementptr inbounds %struct.SortSupportData, ptr %38, i64 0
  %40 = getelementptr inbounds nuw %struct.SortSupportData, ptr %39, i32 0, i32 4
  %41 = load i16, ptr %40, align 2
  %42 = sext i16 %41 to i32
  %43 = load ptr, ptr %8, align 8
  %44 = getelementptr inbounds nuw %struct.TuplesortPublic, ptr %43, i32 0, i32 15
  %45 = load ptr, ptr %44, align 8
  %46 = load ptr, ptr %5, align 8
  %47 = load i32, ptr %7, align 4
  %48 = sext i32 %47 to i64
  %49 = getelementptr inbounds %struct.SortTuple, ptr %46, i64 %48
  %50 = getelementptr inbounds nuw %struct.SortTuple, ptr %49, i32 0, i32 2
  %51 = call i64 @heap_getattr(ptr noundef %9, i32 noundef %42, ptr noundef %45, ptr noundef %50)
  %52 = load ptr, ptr %5, align 8
  %53 = load i32, ptr %7, align 4
  %54 = sext i32 %53 to i64
  %55 = getelementptr inbounds %struct.SortTuple, ptr %52, i64 %54
  %56 = getelementptr inbounds nuw %struct.SortTuple, ptr %55, i32 0, i32 1
  store i64 %51, ptr %56, align 8
  call void @llvm.lifetime.end.p0(i64 24, ptr %9) #6
  br label %57

57:                                               ; preds = %15
  %58 = load i32, ptr %7, align 4
  %59 = add i32 %58, 1
  store i32 %59, ptr %7, align 4
  br label %11, !llvm.loop !8

60:                                               ; preds = %11
  call void @llvm.lifetime.end.p0(i64 8, ptr %8) #6
  call void @llvm.lifetime.end.p0(i64 4, ptr %7) #6
  ret void
}