; Function Attrs: nounwind uwtable
define internal void @removeabbrev_heap(ptr noundef readonly captures(none) %0, ptr noundef %1, i32 noundef %2) #0 {
  %4 = alloca %struct.HeapTupleData, align 8
  %5 = icmp sgt i32 %2, 0
  br i1 %5, label %.lr.ph, label %._crit_edge

.lr.ph:                                           ; preds = %3
  %6 = getelementptr inbounds nuw i8, ptr %4, i64 16
  %7 = getelementptr inbounds nuw i8, ptr %0, i64 80
  %8 = getelementptr inbounds nuw i8, ptr %0, i64 104
  %wide.trip.count = zext nneg i32 %2 to i64
  br label %9

9:                                                ; preds = %.lr.ph, %9
  %indvars.iv = phi i64 [ 0, %.lr.ph ], [ %indvars.iv.next, %9 ]
  call void @llvm.lifetime.start.p0(i64 24, ptr nonnull %4) #12
  %10 = getelementptr inbounds nuw %struct.SortTuple, ptr %1, i64 %indvars.iv
  %11 = load ptr, ptr %10, align 8
  %12 = load i32, ptr %11, align 4
  %13 = add i32 %12, 8
  store i32 %13, ptr %4, align 8
  %14 = getelementptr inbounds i8, ptr %11, i64 -8
  store ptr %14, ptr %6, align 8
  %15 = load ptr, ptr %7, align 8
  %16 = getelementptr inbounds nuw i8, ptr %15, i64 14
  %17 = load i16, ptr %16, align 2
  %18 = sext i16 %17 to i32
  %19 = load ptr, ptr %8, align 8
  %20 = getelementptr inbounds nuw i8, ptr %10, i64 16
  %21 = call fastcc i64 @heap_getattr(ptr noundef nonnull %4, i32 noundef %18, ptr noundef %19, ptr noundef nonnull %20)
  %22 = getelementptr inbounds nuw i8, ptr %10, i64 8
  store i64 %21, ptr %22, align 8
  call void @llvm.lifetime.end.p0(i64 24, ptr nonnull %4) #12
  %indvars.iv.next = add nuw nsw i64 %indvars.iv, 1
  %exitcond.not = icmp eq i64 %indvars.iv.next, %wide.trip.count
  br i1 %exitcond.not, label %._crit_edge, label %9, !llvm.loop !8

._crit_edge:                                      ; preds = %9, %3
  ret void
}